; Function Attrs: mustprogress uwtable
define internal void @"_ZNSt17_Function_handlerIFSt10unique_ptrIN7testing12_GLOBAL__N_111NonCopyableESt14default_deleteIS3_EEvEZNS2_35ExceptionCheckTest_NonCopyable_Test8TestBodyEvE3$_0E9_M_invokeERKSt9_Any_data"(ptr noalias nocapture writeonly sret(%"class.std::unique_ptr.528") align 8 %agg.result, ptr nocapture nonnull readnone align 8 %__functor) #3 align 2 personality ptr @__gxx_personality_v0 {
entry:
  tail call void @llvm.experimental.noalias.scope.decl(metadata !679)
  tail call void @llvm.experimental.noalias.scope.decl(metadata !682)
  tail call void @llvm.experimental.noalias.scope.decl(metadata !685)
  tail call void @llvm.experimental.noalias.scope.decl(metadata !688)
  %call.i.i.i.i = tail call noalias noundef nonnull dereferenceable(4) ptr @_Znwm(i64 noundef 4) #25, !noalias !691
  store i32 0, ptr %call.i.i.i.i, align 4, !noalias !691
  store ptr %call.i.i.i.i, ptr %agg.result, align 8, !alias.scope !691
  ret void
}